target datalayout = "e-m:e-p270:32:32-p271:32:32-p272:64:64-i64:64-i128:128-f80:128-n8:16:32:64-S128"
target triple = "x86_64-pc-linux-gnu"

%struct.AVIOInterruptCB = type { ptr, ptr }

@.str.539 = private unnamed_addr constant [2 x i8] c"-\00", align 1
@.str.540 = private unnamed_addr constant [6 x i8] c"pipe:\00", align 1
@int_cb = external constant %struct.AVIOInterruptCB, align 8
@.str.541 = private unnamed_addr constant [38 x i8] c"Failed to open progress URL \22%s\22: %s\0A\00", align 1
@progress_avio = external global ptr, align 8

; Function Attrs: inlinehint nounwind uwtable
define internal ptr @av_make_error_string(ptr noundef %0, i64 noundef %1, i32 noundef %2) #7 {
  %4 = alloca ptr, align 8
  %5 = alloca i64, align 8
  %6 = alloca i32, align 4
  store ptr %0, ptr %4, align 8, !tbaa !23
  store i64 %1, ptr %5, align 8, !tbaa !56
  store i32 %2, ptr %6, align 4, !tbaa !16
  %7 = load i32, ptr %6, align 4, !tbaa !16
  %8 = load ptr, ptr %4, align 8, !tbaa !23
  %9 = load i64, ptr %5, align 8, !tbaa !56
  %10 = call i32 @av_strerror(i32 noundef %7, ptr noundef %8, i64 noundef %9)
  %11 = load ptr, ptr %4, align 8, !tbaa !23
  ret ptr %11
}

; Function Attrs: nounwind uwtable
define internal i32 @opt_progress(ptr noundef %0, ptr noundef %1, ptr noundef %2) #0 {
  %4 = alloca i32, align 4
  %5 = alloca ptr, align 8
  %6 = alloca ptr, align 8
  %7 = alloca ptr, align 8
  %8 = alloca ptr, align 8
  %9 = alloca i32, align 4
  %10 = alloca [64 x i8], align 1
  %11 = alloca i32, align 4
  store ptr %0, ptr %5, align 8, !tbaa !26
  store ptr %1, ptr %6, align 8, !tbaa !23
  store ptr %2, ptr %7, align 8, !tbaa !23
  call void @llvm.lifetime.start.p0(i64 8, ptr %8) #12
  store ptr null, ptr %8, align 8, !tbaa !174
  call void @llvm.lifetime.start.p0(i64 4, ptr %9) #12
  %12 = load ptr, ptr %7, align 8, !tbaa !23
  %13 = call i32 @strcmp(ptr noundef %12, ptr noundef @.str.539) #13
  %14 = icmp ne i32 %13, 0
  br i1 %14, label %16, label %15

15:                                               ; preds = %3
  store ptr @.str.540, ptr %7, align 8, !tbaa !23
  br label %16

16:                                               ; preds = %15, %3
  %17 = load ptr, ptr %7, align 8, !tbaa !23
  %18 = call i32 @avio_open2(ptr noundef %8, ptr noundef %17, i32 noundef 2, ptr noundef @int_cb, ptr noundef null)
  store i32 %18, ptr %9, align 4, !tbaa !16
  %19 = load i32, ptr %9, align 4, !tbaa !16
  %20 = icmp slt i32 %19, 0
  br i1 %20, label %21, label %27

21:                                               ; preds = %16
  %22 = load ptr, ptr %7, align 8, !tbaa !23
  call void @llvm.memset.p0.i64(ptr align 1 %10, i8 0, i64 64, i1 false)
  %23 = getelementptr inbounds [64 x i8], ptr %10, i64 0, i64 0
  %24 = load i32, ptr %9, align 4, !tbaa !16
  %25 = call ptr @av_make_error_string(ptr noundef %23, i64 noundef 64, i32 noundef %24)
  call void (ptr, i32, ptr, ...) @av_log(ptr noundef null, i32 noundef 16, ptr noundef @.str.541, ptr noundef %22, ptr noundef %25)
  %26 = load i32, ptr %9, align 4, !tbaa !16
  store i32 %26, ptr %4, align 4
  store i32 1, ptr %11, align 4
  br label %29

27:                                               ; preds = %16
  %28 = load ptr, ptr %8, align 8, !tbaa !174
  store ptr %28, ptr @progress_avio, align 8, !tbaa !174
  store i32 0, ptr %4, align 4
  store i32 1, ptr %11, align 4
  br label %29

29:                                               ; preds = %27, %21
  call void @llvm.lifetime.end.p0(i64 4, ptr %9) #12
  call void @llvm.lifetime.end.p0(i64 8, ptr %8) #12
  %30 = load i32, ptr %4, align 4
  ret i32 %30
}