; Function Attrs: nounwind uwtable
define internal range(i32 -2147483648, 1) i32 @opt_progress(ptr readnone captures(none) %0, ptr readnone captures(none) %1, ptr noundef %2) #0 {
sub_0:
  %3 = alloca ptr, align 8
  %4 = alloca [64 x i8], align 1
  call void @llvm.lifetime.start.p0(i64 8, ptr nonnull %3) #15
  store ptr null, ptr %3, align 8, !tbaa !154
  %5 = load i8, ptr %2, align 1
  %.not7 = icmp eq i8 %5, 45
  br i1 %.not7, label %sub_1, label %.tail

sub_1:                                            ; preds = %sub_0
  %6 = getelementptr inbounds nuw i8, ptr %2, i64 1
  %7 = load i8, ptr %6, align 1
  %8 = icmp eq i8 %7, 0
  %9 = select i1 %8, ptr @.str.540, ptr %2
  br label %.tail

.tail:                                            ; preds = %sub_0, %sub_1
  %.not = phi ptr [ %2, %sub_0 ], [ %9, %sub_1 ]
  %10 = call i32 @avio_open2(ptr noundef nonnull %3, ptr noundef nonnull %.not, i32 noundef 2, ptr noundef nonnull @int_cb, ptr noundef null) #15
  %11 = icmp slt i32 %10, 0
  br i1 %11, label %12, label %14

12:                                               ; preds = %.tail
  call void @llvm.memset.p0.i64(ptr noundef nonnull align 1 dereferenceable(64) %4, i8 0, i64 64, i1 false)
  %13 = call i32 @av_strerror(i32 noundef range(i32 -2147483648, 0) %10, ptr noundef nonnull %4, i64 noundef 64) #15
  call void (ptr, i32, ptr, ...) @av_log(ptr noundef null, i32 noundef 16, ptr noundef nonnull @.str.541, ptr noundef nonnull %.not, ptr noundef nonnull %4) #15
  br label %16

14:                                               ; preds = %.tail
  %15 = load ptr, ptr %3, align 8, !tbaa !154
  store ptr %15, ptr @progress_avio, align 8, !tbaa !154
  br label %16

16:                                               ; preds = %14, %12
  %.0 = phi i32 [ %10, %12 ], [ 0, %14 ]
  call void @llvm.lifetime.end.p0(i64 8, ptr nonnull %3) #15
  ret i32 %.0
}